target datalayout = "e-m:e-p270:32:32-p271:32:32-p272:64:64-i64:64-i128:128-f80:128-n8:16:32:64-S128"
target triple = "x86_64-pc-linux-gnu"

%union.pthread_mutex_t = type { %struct.__pthread_mutex_s }
%struct.__pthread_mutex_s = type { i32, i32, i32, i32, i32, i16, i16, %struct.__pthread_internal_list }
%struct.__pthread_internal_list = type { ptr, ptr }

@agent_thread_cnt = internal global i32 0, align 4
@agent_cnt_mutex = internal global %union.pthread_mutex_t zeroinitializer, align 8
@.str.3 = private unnamed_addr constant [29 x i8] c"%s: pthread_mutex_lock(): %m\00", align 1
@.str.7 = private unnamed_addr constant [31 x i8] c"%s: pthread_mutex_unlock(): %m\00", align 1
@__func__.get_agent_thread_count = private unnamed_addr constant [23 x i8] c"get_agent_thread_count\00", align 1

; Function Attrs: nounwind uwtable
define dso_local i32 @get_agent_thread_count() #0 {
  %1 = alloca i32, align 4
  %2 = alloca i32, align 4
  %3 = alloca i32, align 4
  call void @llvm.lifetime.start.p0(i64 4, ptr %1) #10
  br label %4

4:                                                ; preds = %0
  call void @llvm.lifetime.start.p0(i64 4, ptr %2) #10
  %5 = call i32 @pthread_mutex_lock(ptr noundef @agent_cnt_mutex) #10
  store i32 %5, ptr %2, align 4
  %6 = load i32, ptr %2, align 4
  %7 = icmp ne i32 %6, 0
  br i1 %7, label %8, label %11

8:                                                ; preds = %4
  %9 = load i32, ptr %2, align 4
  %10 = call ptr @__errno_location() #11
  store i32 %9, ptr %10, align 4
  call void (ptr, ...) @fatal_abort(ptr noundef @.str.3, ptr noundef @__func__.get_agent_thread_count) #12
  unreachable

11:                                               ; preds = %4
  call void @llvm.lifetime.end.p0(i64 4, ptr %2) #10
  br label %12

12:                                               ; preds = %11
  br label %13

13:                                               ; preds = %12
  %14 = load i32, ptr @agent_thread_cnt, align 4
  store i32 %14, ptr %1, align 4
  br label %15

15:                                               ; preds = %13
  call void @llvm.lifetime.start.p0(i64 4, ptr %3) #10
  %16 = call i32 @pthread_mutex_unlock(ptr noundef @agent_cnt_mutex) #10
  store i32 %16, ptr %3, align 4
  %17 = load i32, ptr %3, align 4
  %18 = icmp ne i32 %17, 0
  br i1 %18, label %19, label %22

19:                                               ; preds = %15
  %20 = load i32, ptr %3, align 4
  %21 = call ptr @__errno_location() #11
  store i32 %20, ptr %21, align 4
  call void (ptr, ...) @fatal_abort(ptr noundef @.str.7, ptr noundef @__func__.get_agent_thread_count) #12
  unreachable

22:                                               ; preds = %15
  call void @llvm.lifetime.end.p0(i64 4, ptr %3) #10
  br label %23

23:                                               ; preds = %22
  br label %24

24:                                               ; preds = %23
  %25 = load i32, ptr %1, align 4
  call void @llvm.lifetime.end.p0(i64 4, ptr %1) #10
  ret i32 %25
}