; Function Attrs: nounwind uwtable
define dso_local i32 @get_agent_thread_count() local_unnamed_addr #0 {
  %1 = tail call i32 @pthread_mutex_lock(ptr noundef nonnull @agent_cnt_mutex) #14
  %.not = icmp eq i32 %1, 0
  br i1 %.not, label %4, label %2

2:                                                ; preds = %0
  %3 = tail call ptr @__errno_location() #15
  store i32 %1, ptr %3, align 4
  tail call void (ptr, ...) @fatal_abort(ptr noundef nonnull @.str.3, ptr noundef nonnull @__func__.get_agent_thread_count) #16
  unreachable

4:                                                ; preds = %0
  %5 = load i32, ptr @agent_thread_cnt, align 4
  %6 = tail call i32 @pthread_mutex_unlock(ptr noundef nonnull @agent_cnt_mutex) #14
  %.not6 = icmp eq i32 %6, 0
  br i1 %.not6, label %9, label %7

7:                                                ; preds = %4
  %8 = tail call ptr @__errno_location() #15
  store i32 %6, ptr %8, align 4
  tail call void (ptr, ...) @fatal_abort(ptr noundef nonnull @.str.7, ptr noundef nonnull @__func__.get_agent_thread_count) #16
  unreachable

9:                                                ; preds = %4
  ret i32 %5
}